
main.out:     file format elf32-littlearm

SYMBOL TABLE:
00000000 l    d  .text	00000000 .text
00001514 l    d  .rodata	00000000 .rodata
0000152c l    d  .eh_frame	00000000 .eh_frame
00001530 l    d  .ARM.exidx	00000000 .ARM.exidx
20000000 l    d  .data	00000000 .data
20000870 l    d  .bss	00000000 .bss
00000000 l    d  .ARM.attributes	00000000 .ARM.attributes
00000000 l    d  .comment	00000000 .comment
00000000 l    d  .debug_line	00000000 .debug_line
00000000 l    d  .debug_info	00000000 .debug_info
00000000 l    d  .debug_abbrev	00000000 .debug_abbrev
00000000 l    d  .debug_aranges	00000000 .debug_aranges
00000000 l    d  .debug_str	00000000 .debug_str
00000000 l    d  .debug_loc	00000000 .debug_loc
00000000 l    d  .debug_frame	00000000 .debug_frame
00000000 l    d  .debug_ranges	00000000 .debug_ranges
00000000 l    df *ABS*	00000000 /usr/lib/gcc/arm-none-eabi/8.3.1/crti.o
00000000 l    df *ABS*	00000000 crtstuff.c
0000152c l     O .eh_frame	00000000 
00000000 l     F .text	00000000 deregister_tm_clones
0000002c l     F .text	00000000 register_tm_clones
00000064 l     F .text	00000000 __do_global_dtors_aux
20000870 l       .bss	00000001 completed.6708
00001504 l     O .text	00000000 __do_global_dtors_aux_fini_array_entry
000000a8 l     F .text	00000000 frame_dummy
20000874 l       .bss	00000018 object.6713
000014d8 l     O .text	00000000 __frame_dummy_init_array_entry
00000000 l    df *ABS*	00000000 /usr/lib/gcc/arm-none-eabi/8.3.1/../../../arm-none-eabi/lib/crt0.o
00000000 l    df *ABS*	00000000 main.c
2000088c l       .bss	00000004 g1
00000000 l    df *ABS*	00000000 misc.c
20000894 l       .bss	00000004 f2.4194
00000000 l    df *ABS*	00000000 atexit.c
00000000 l    df *ABS*	00000000 exit.c
00000000 l    df *ABS*	00000000 fini.c
00000000 l    df *ABS*	00000000 impure.c
20000038 l     O .data	00000428 impure_data
00000000 l    df *ABS*	00000000 init.c
00000000 l    df *ABS*	00000000 malloc.c
00000000 l    df *ABS*	00000000 mallocr.c
00000000 l    df *ABS*	00000000 memset.c
00000000 l    df *ABS*	00000000 mlock.c
00000000 l    df *ABS*	00000000 sbrkr.c
00000000 l    df *ABS*	00000000 __atexit.c
00000000 l    df *ABS*	00000000 __call_atexit.c
000014b0 l     F .text	00000028 register_fini
00000000 l    df *ABS*	00000000 mallocr.c
00000000 l    df *ABS*	00000000 reent.c
00000000 l    df *ABS*	00000000 sbrk.c
200008cc l     O .bss	00000004 heap_end.4192
00000000 l    df *ABS*	00000000 _exit.c
00000000 l    df *ABS*	00000000 crtstuff.c
0000152c l     O .eh_frame	00000000 __FRAME_END__
00000000 l    df *ABS*	00000000 /usr/lib/gcc/arm-none-eabi/8.3.1/crtn.o
00001364 g     F .text	0000002c cleanup_glue
20000890 g     O .bss	00000001 g4
20000000 g       .data	00000000 __data_start__
00000da4 g     F .text	00000004 __malloc_unlock
20000004 g     O .data	00000001 g3
00001538 g       .ARM.exidx	00000000 __exidx_end
00001538 g       .ARM.exidx	00000000 __etext
200008d0 g     O .bss	00000004 errno
20000000 g       *ABS*	00000000 _vtable_base_address
20000870 g     O .data	00000000 .hidden __TMC_END__
00000494 g     F .text	00000020 malloc
20000898 g     O .bss	00000004 __malloc_top_pad
200008d4 g       .ARM.attributes	00000000 __HeapLimit
200008d4 g       .ARM.attributes	00000000 __heap_end__
20000870 g       .bss	00000000 __bss_start__
20000000 g     O .data	00000000 .hidden __dso_handle
00000da8 g     F .text	00000044 _sbrk_r
200008c4 g     O .bss	00000004 __malloc_max_sbrked_mem
00001530 g       .ARM.exidx	00000000 __exidx_start
00001528 g     O .rodata	00000004 _global_impure_ptr
0000040c g     F .text	00000088 __libc_init_array
00000164 g       .text	00000000 _mainCRTStartup
00201000 g       *ABS*	00000000 _tlv_base_address
00001480 g     F .text	0000002c _sbrk
000014e0 g     F .text	00000000 _init
000003c4 g     F .text	00000048 __libc_fini_array
00001390 g     F .text	000000f0 _reclaim_reent
20000008 g     O .data	00000028 g5
00001514 g     O .rodata	00000004 g2
200008d4 g       .ARM.attributes	00000000 end
20000870 g       .data	00000000 __data_end__
200008d4 g       .bss	00000000 __bss_end__
00001084 g     F .text	000002e0 _free_r
00000e78 g     F .text	0000010c __call_exitprocs
20000868 g     O .data	00000004 __malloc_sbrk_base
00000164 g       .text	00000000 _start
200008d4 g       .ARM.attributes	00000000 __end
00000dec g     F .text	0000008c __register_exitproc
000000dc  w      .text	00000000 _stack_init
2000089c g     O .bss	00000028 __malloc_current_mallinfo
00001538 g       *ABS*	00000000 __data_load__
20000460 g     O .data	00000408 __malloc_av_
00000da0 g     F .text	00000004 __malloc_lock
00202000 g       *ABS*	00000000 _bsl_base_address
00000c88 g     F .text	00000118 memset
00000204 g     F .text	0000009c main
200008c8 g     O .bss	00000004 __malloc_max_total_mem
000014e0 g       .text	00000000 __init_array_end
000004d4 g     F .text	000007b4 _malloc_r
200008d4 g       .ARM.attributes	00000000 __heap_start__
00000f84 g     F .text	00000100 _malloc_trim_r
000014f8 g     F .text	00000000 _fini
00000370 g     F .text	00000020 atexit
20000030 g     O .data	00000004 _impure_ptr
000002a0 g     F .text	000000d0 func
200008d8 g       .ARM.attributes	00000000 __stack
200008d4 g       .ARM.attributes	00000000 _end
2000086c g     O .data	00000004 __malloc_trim_threshold
00000390 g     F .text	00000034 exit
000014d8 g       .text	00000000 __init_array_start
000014ac g     F .text	00000004 _exit
200008d8 g       .ARM.attributes	00000000 _stack
00200000 g       *ABS*	00000000 _mailbox_base_address
00000000 g       *ABS*	00000000 _intvecs_base_address
000004b4 g     F .text	00000020 free



Disassembly of section .text:

00000000 <deregister_tm_clones>:
       0:	e59f0018 	ldr	r0, [pc, #24]	; 20 <deregister_tm_clones+0x20>
       4:	e59f3018 	ldr	r3, [pc, #24]	; 24 <deregister_tm_clones+0x24>
       8:	e1530000 	cmp	r3, r0
       c:	012fff1e 	bxeq	lr
      10:	e59f3010 	ldr	r3, [pc, #16]	; 28 <deregister_tm_clones+0x28>
      14:	e3530000 	cmp	r3, #0
      18:	012fff1e 	bxeq	lr
      1c:	e12fff13 	bx	r3
      20:	20000870 	.word	0x20000870
      24:	20000870 	.word	0x20000870
      28:	00000000 	.word	0x00000000

0000002c <register_tm_clones>:
      2c:	e59f0024 	ldr	r0, [pc, #36]	; 58 <register_tm_clones+0x2c>
      30:	e59f1024 	ldr	r1, [pc, #36]	; 5c <register_tm_clones+0x30>
      34:	e0411000 	sub	r1, r1, r0
      38:	e1a01141 	asr	r1, r1, #2
      3c:	e0811fa1 	add	r1, r1, r1, lsr #31
      40:	e1b010c1 	asrs	r1, r1, #1
      44:	012fff1e 	bxeq	lr
      48:	e59f3010 	ldr	r3, [pc, #16]	; 60 <register_tm_clones+0x34>
      4c:	e3530000 	cmp	r3, #0
      50:	012fff1e 	bxeq	lr
      54:	e12fff13 	bx	r3
      58:	20000870 	.word	0x20000870
      5c:	20000870 	.word	0x20000870
      60:	00000000 	.word	0x00000000

00000064 <__do_global_dtors_aux>:
      64:	e92d4010 	push	{r4, lr}
      68:	e59f402c 	ldr	r4, [pc, #44]	; 9c <__do_global_dtors_aux+0x38>
      6c:	e5d43000 	ldrb	r3, [r4]
      70:	e3530000 	cmp	r3, #0
      74:	1a000006 	bne	94 <__do_global_dtors_aux+0x30>
      78:	ebffffe0 	bl	0 <deregister_tm_clones>
      7c:	e59f301c 	ldr	r3, [pc, #28]	; a0 <__do_global_dtors_aux+0x3c>
      80:	e3530000 	cmp	r3, #0
      84:	159f0018 	ldrne	r0, [pc, #24]	; a4 <__do_global_dtors_aux+0x40>
      88:	11a00000 	movne	r0, r0
      8c:	e3a03001 	mov	r3, #1
      90:	e5c43000 	strb	r3, [r4]
      94:	e8bd4010 	pop	{r4, lr}
      98:	e12fff1e 	bx	lr
      9c:	20000870 	.word	0x20000870
      a0:	00000000 	.word	0x00000000
      a4:	0000152c 	.word	0x0000152c

000000a8 <frame_dummy>:
      a8:	e59f3020 	ldr	r3, [pc, #32]	; d0 <frame_dummy+0x28>
      ac:	e3530000 	cmp	r3, #0
      b0:	0a000005 	beq	cc <frame_dummy+0x24>
      b4:	e92d4010 	push	{r4, lr}
      b8:	e59f1014 	ldr	r1, [pc, #20]	; d4 <frame_dummy+0x2c>
      bc:	e59f0014 	ldr	r0, [pc, #20]	; d8 <frame_dummy+0x30>
      c0:	e1a00000 	nop			; (mov r0, r0)
      c4:	e8bd4010 	pop	{r4, lr}
      c8:	eaffffd7 	b	2c <register_tm_clones>
      cc:	eaffffd6 	b	2c <register_tm_clones>
      d0:	00000000 	.word	0x00000000
      d4:	20000874 	.word	0x20000874
      d8:	0000152c 	.word	0x0000152c

000000dc <_stack_init>:
      dc:	e10f4000 	mrs	r4, CPSR
      e0:	e314000f 	tst	r4, #15
      e4:	0a00001c 	beq	15c <_stack_init+0x80>
      e8:	e1a0300d 	mov	r3, sp
      ec:	e3a010d1 	mov	r1, #209	; 0xd1
      f0:	e121f001 	msr	CPSR_c, r1
      f4:	e1a0d003 	mov	sp, r3
      f8:	e24daa01 	sub	sl, sp, #4096	; 0x1000
      fc:	e1a0300a 	mov	r3, sl
     100:	e3a010d7 	mov	r1, #215	; 0xd7
     104:	e121f001 	msr	CPSR_c, r1
     108:	e1a0d003 	mov	sp, r3
     10c:	e2433a01 	sub	r3, r3, #4096	; 0x1000
     110:	e3a010db 	mov	r1, #219	; 0xdb
     114:	e121f001 	msr	CPSR_c, r1
     118:	e1a0d003 	mov	sp, r3
     11c:	e2433a01 	sub	r3, r3, #4096	; 0x1000
     120:	e3a010d2 	mov	r1, #210	; 0xd2
     124:	e121f001 	msr	CPSR_c, r1
     128:	e1a0d003 	mov	sp, r3
     12c:	e2433a02 	sub	r3, r3, #8192	; 0x2000
     130:	e3a010d3 	mov	r1, #211	; 0xd3
     134:	e121f001 	msr	CPSR_c, r1
     138:	e1a0d003 	mov	sp, r3
     13c:	e2433902 	sub	r3, r3, #32768	; 0x8000
     140:	e3c330ff 	bic	r3, r3, #255	; 0xff
     144:	e3c33cff 	bic	r3, r3, #65280	; 0xff00
     148:	e3a010df 	mov	r1, #223	; 0xdf
     14c:	e121f001 	msr	CPSR_c, r1
     150:	e1a0d003 	mov	sp, r3
     154:	e38440c0 	orr	r4, r4, #192	; 0xc0
     158:	e121f004 	msr	CPSR_c, r4
     15c:	e243a801 	sub	sl, r3, #65536	; 0x10000
     160:	e12fff1e 	bx	lr

00000164 <_mainCRTStartup>:
     164:	e59f3088 	ldr	r3, [pc, #136]	; 1f4 <_mainCRTStartup+0x90>
     168:	e3530000 	cmp	r3, #0
     16c:	059f3074 	ldreq	r3, [pc, #116]	; 1e8 <_mainCRTStartup+0x84>
     170:	e1a0d003 	mov	sp, r3
     174:	ebffffd8 	bl	dc <_stack_init>
     178:	e3b01000 	movs	r1, #0
     17c:	e1a0b001 	mov	fp, r1
     180:	e1a07001 	mov	r7, r1
     184:	e59f006c 	ldr	r0, [pc, #108]	; 1f8 <_mainCRTStartup+0x94>
     188:	e59f206c 	ldr	r2, [pc, #108]	; 1fc <_mainCRTStartup+0x98>
     18c:	e0522000 	subs	r2, r2, r0
     190:	eb0002bc 	bl	c88 <memset>
     194:	e59f3050 	ldr	r3, [pc, #80]	; 1ec <_mainCRTStartup+0x88>
     198:	e3530000 	cmp	r3, #0
     19c:	0a000001 	beq	1a8 <_mainCRTStartup+0x44>
     1a0:	e1a0e00f 	mov	lr, pc
     1a4:	e1a0f003 	mov	pc, r3
     1a8:	e59f3040 	ldr	r3, [pc, #64]	; 1f0 <_mainCRTStartup+0x8c>
     1ac:	e3530000 	cmp	r3, #0
     1b0:	0a000001 	beq	1bc <_mainCRTStartup+0x58>
     1b4:	e1a0e00f 	mov	lr, pc
     1b8:	e1a0f003 	mov	pc, r3
     1bc:	e3b00000 	movs	r0, #0
     1c0:	e3b01000 	movs	r1, #0
     1c4:	e1b04000 	movs	r4, r0
     1c8:	e1b05001 	movs	r5, r1
     1cc:	e59f002c 	ldr	r0, [pc, #44]	; 200 <_mainCRTStartup+0x9c>
     1d0:	eb000066 	bl	370 <atexit>
     1d4:	eb00008c 	bl	40c <__libc_init_array>
     1d8:	e1b00004 	movs	r0, r4
     1dc:	e1b01005 	movs	r1, r5
     1e0:	eb000007 	bl	204 <main>
     1e4:	eb000069 	bl	390 <exit>
     1e8:	00080000 	.word	0x00080000
	...
     1f4:	200008d8 	.word	0x200008d8
     1f8:	20000870 	.word	0x20000870
     1fc:	200008d4 	.word	0x200008d4
     200:	000003c4 	.word	0x000003c4

00000204 <main>:
     204:	e92d4810 	push	{r4, fp, lr}
     208:	e28db008 	add	fp, sp, #8
     20c:	e24dd00c 	sub	sp, sp, #12
     210:	e3a0300c 	mov	r3, #12
     214:	e50b3014 	str	r3, [fp, #-20]	; 0xffffffec
     218:	e3a0302d 	mov	r3, #45	; 0x2d
     21c:	e1a02003 	mov	r2, r3
     220:	e1a03002 	mov	r3, r2
     224:	e1a03103 	lsl	r3, r3, #2
     228:	e0833002 	add	r3, r3, r2
     22c:	e1a03083 	lsl	r3, r3, #1
     230:	e1a00003 	mov	r0, r3
     234:	eb000096 	bl	494 <malloc>
     238:	e1a03000 	mov	r3, r0
     23c:	e50b3010 	str	r3, [fp, #-16]
     240:	e51b3010 	ldr	r3, [fp, #-16]
     244:	e3530000 	cmp	r3, #0
     248:	1a000001 	bne	254 <main+0x50>
     24c:	e3e03000 	mvn	r3, #0
     250:	ea00000d 	b	28c <main+0x88>
     254:	e3a04000 	mov	r4, #0
     258:	ea000007 	b	27c <main+0x78>
     25c:	e51b0010 	ldr	r0, [fp, #-16]
     260:	eb00000e 	bl	2a0 <func>
     264:	e1a02000 	mov	r2, r0
     268:	e59f302c 	ldr	r3, [pc, #44]	; 29c <main+0x98>
     26c:	e5832000 	str	r2, [r3]
     270:	e51b3014 	ldr	r3, [fp, #-20]	; 0xffffffec
     274:	e2833001 	add	r3, r3, #1
     278:	e50b3014 	str	r3, [fp, #-20]	; 0xffffffec
     27c:	e3a0302d 	mov	r3, #45	; 0x2d
     280:	e1540003 	cmp	r4, r3
     284:	bafffff4 	blt	25c <main+0x58>
     288:	e3a03000 	mov	r3, #0
     28c:	e1a00003 	mov	r0, r3
     290:	e24bd008 	sub	sp, fp, #8
     294:	e8bd4810 	pop	{r4, fp, lr}
     298:	e12fff1e 	bx	lr
     29c:	2000088c 	.word	0x2000088c

000002a0 <func>:
     2a0:	e52db004 	push	{fp}		; (str fp, [sp, #-4]!)
     2a4:	e28db000 	add	fp, sp, #0
     2a8:	e24dd014 	sub	sp, sp, #20
     2ac:	e50b0010 	str	r0, [fp, #-16]
     2b0:	e3a03000 	mov	r3, #0
     2b4:	e50b3008 	str	r3, [fp, #-8]
     2b8:	e59f30a4 	ldr	r3, [pc, #164]	; 364 <func+0xc4>
     2bc:	e50b300c 	str	r3, [fp, #-12]
     2c0:	e59f30a0 	ldr	r3, [pc, #160]	; 368 <func+0xc8>
     2c4:	e5933000 	ldr	r3, [r3]
     2c8:	e2833001 	add	r3, r3, #1
     2cc:	e59f2094 	ldr	r2, [pc, #148]	; 368 <func+0xc8>
     2d0:	e5823000 	str	r3, [r2]
     2d4:	e59f308c 	ldr	r3, [pc, #140]	; 368 <func+0xc8>
     2d8:	e5933000 	ldr	r3, [r3]
     2dc:	e1a03103 	lsl	r3, r3, #2
     2e0:	e59f2084 	ldr	r2, [pc, #132]	; 36c <func+0xcc>
     2e4:	e0833002 	add	r3, r3, r2
     2e8:	e51b2008 	ldr	r2, [fp, #-8]
     2ec:	e5832000 	str	r2, [r3]
     2f0:	e3a03000 	mov	r3, #0
     2f4:	e50b3008 	str	r3, [fp, #-8]
     2f8:	ea000010 	b	340 <func+0xa0>
     2fc:	e51b200c 	ldr	r2, [fp, #-12]
     300:	e51b3008 	ldr	r3, [fp, #-8]
     304:	e0823003 	add	r3, r2, r3
     308:	e5d33000 	ldrb	r3, [r3]
     30c:	e20330ff 	and	r3, r3, #255	; 0xff
     310:	e1a01003 	mov	r1, r3
     314:	e59f2050 	ldr	r2, [pc, #80]	; 36c <func+0xcc>
     318:	e51b3008 	ldr	r3, [fp, #-8]
     31c:	e7821103 	str	r1, [r2, r3, lsl #2]
     320:	e59f3040 	ldr	r3, [pc, #64]	; 368 <func+0xc8>
     324:	e5933000 	ldr	r3, [r3]
     328:	e2833001 	add	r3, r3, #1
     32c:	e59f2034 	ldr	r2, [pc, #52]	; 368 <func+0xc8>
     330:	e5823000 	str	r3, [r2]
     334:	e51b3008 	ldr	r3, [fp, #-8]
     338:	e2833001 	add	r3, r3, #1
     33c:	e50b3008 	str	r3, [fp, #-8]
     340:	e51b3008 	ldr	r3, [fp, #-8]
     344:	e3530005 	cmp	r3, #5
     348:	9affffeb 	bls	2fc <func+0x5c>
     34c:	e59f3014 	ldr	r3, [pc, #20]	; 368 <func+0xc8>
     350:	e5933000 	ldr	r3, [r3]
     354:	e1a00003 	mov	r0, r3
     358:	e28bd000 	add	sp, fp, #0
     35c:	e49db004 	pop	{fp}		; (ldr fp, [sp], #4)
     360:	e12fff1e 	bx	lr
     364:	00001518 	.word	0x00001518
     368:	20000894 	.word	0x20000894
     36c:	20000008 	.word	0x20000008

00000370 <atexit>:
     370:	e3a03000 	mov	r3, #0
     374:	e92d4010 	push	{r4, lr}
     378:	e1a01000 	mov	r1, r0
     37c:	e1a02003 	mov	r2, r3
     380:	e1a00003 	mov	r0, r3
     384:	eb000298 	bl	dec <__register_exitproc>
     388:	e8bd4010 	pop	{r4, lr}
     38c:	e12fff1e 	bx	lr

00000390 <exit>:
     390:	e92d4010 	push	{r4, lr}
     394:	e3a01000 	mov	r1, #0
     398:	e1a04000 	mov	r4, r0
     39c:	eb0002b5 	bl	e78 <__call_exitprocs>
     3a0:	e59f3018 	ldr	r3, [pc, #24]	; 3c0 <exit+0x30>
     3a4:	e5930000 	ldr	r0, [r3]
     3a8:	e590303c 	ldr	r3, [r0, #60]	; 0x3c
     3ac:	e3530000 	cmp	r3, #0
     3b0:	11a0e00f 	movne	lr, pc
     3b4:	112fff13 	bxne	r3
     3b8:	e1a00004 	mov	r0, r4
     3bc:	eb00043a 	bl	14ac <_exit>
     3c0:	00001528 	.word	0x00001528

000003c4 <__libc_fini_array>:
     3c4:	e92d4070 	push	{r4, r5, r6, lr}
     3c8:	e59f4034 	ldr	r4, [pc, #52]	; 404 <__libc_fini_array+0x40>
     3cc:	e59f5034 	ldr	r5, [pc, #52]	; 408 <__libc_fini_array+0x44>
     3d0:	e0444005 	sub	r4, r4, r5
     3d4:	e1b04144 	asrs	r4, r4, #2
     3d8:	0a000006 	beq	3f8 <__libc_fini_array+0x34>
     3dc:	e0855104 	add	r5, r5, r4, lsl #2
     3e0:	e2444001 	sub	r4, r4, #1
     3e4:	e5353004 	ldr	r3, [r5, #-4]!
     3e8:	e1a0e00f 	mov	lr, pc
     3ec:	e12fff13 	bx	r3
     3f0:	e3540000 	cmp	r4, #0
     3f4:	1afffff9 	bne	3e0 <__libc_fini_array+0x1c>
     3f8:	eb00043e 	bl	14f8 <_fini>
     3fc:	e8bd4070 	pop	{r4, r5, r6, lr}
     400:	e12fff1e 	bx	lr
	...

0000040c <__libc_init_array>:
     40c:	e92d4070 	push	{r4, r5, r6, lr}
     410:	e59f606c 	ldr	r6, [pc, #108]	; 484 <__libc_init_array+0x78>
     414:	e59f506c 	ldr	r5, [pc, #108]	; 488 <__libc_init_array+0x7c>
     418:	e0466005 	sub	r6, r6, r5
     41c:	e1b06146 	asrs	r6, r6, #2
     420:	0a000007 	beq	444 <__libc_init_array+0x38>
     424:	e3a04000 	mov	r4, #0
     428:	e2455004 	sub	r5, r5, #4
     42c:	e2844001 	add	r4, r4, #1
     430:	e5b53004 	ldr	r3, [r5, #4]!
     434:	e1a0e00f 	mov	lr, pc
     438:	e12fff13 	bx	r3
     43c:	e1560004 	cmp	r6, r4
     440:	1afffff9 	bne	42c <__libc_init_array+0x20>
     444:	e59f6040 	ldr	r6, [pc, #64]	; 48c <__libc_init_array+0x80>
     448:	e59f5040 	ldr	r5, [pc, #64]	; 490 <__libc_init_array+0x84>
     44c:	e0466005 	sub	r6, r6, r5
     450:	eb000422 	bl	14e0 <_init>
     454:	e1b06146 	asrs	r6, r6, #2
     458:	0a000007 	beq	47c <__libc_init_array+0x70>
     45c:	e3a04000 	mov	r4, #0
     460:	e2455004 	sub	r5, r5, #4
     464:	e2844001 	add	r4, r4, #1
     468:	e5b53004 	ldr	r3, [r5, #4]!
     46c:	e1a0e00f 	mov	lr, pc
     470:	e12fff13 	bx	r3
     474:	e1560004 	cmp	r6, r4
     478:	1afffff9 	bne	464 <__libc_init_array+0x58>
     47c:	e8bd4070 	pop	{r4, r5, r6, lr}
     480:	e12fff1e 	bx	lr
	...
     48c:	000014e0 	.word	0x000014e0
     490:	000014d8 	.word	0x000014d8

00000494 <malloc>:
     494:	e92d4010 	push	{r4, lr}
     498:	e59f3010 	ldr	r3, [pc, #16]	; 4b0 <malloc+0x1c>
     49c:	e1a01000 	mov	r1, r0
     4a0:	e5930000 	ldr	r0, [r3]
     4a4:	eb00000a 	bl	4d4 <_malloc_r>
     4a8:	e8bd4010 	pop	{r4, lr}
     4ac:	e12fff1e 	bx	lr
     4b0:	20000030 	.word	0x20000030

000004b4 <free>:
     4b4:	e92d4010 	push	{r4, lr}
     4b8:	e59f3010 	ldr	r3, [pc, #16]	; 4d0 <free+0x1c>
     4bc:	e1a01000 	mov	r1, r0
     4c0:	e5930000 	ldr	r0, [r3]
     4c4:	eb0002ee 	bl	1084 <_free_r>
     4c8:	e8bd4010 	pop	{r4, lr}
     4cc:	e12fff1e 	bx	lr
     4d0:	20000030 	.word	0x20000030

000004d4 <_malloc_r>:
     4d4:	e92d4ff0 	push	{r4, r5, r6, r7, r8, r9, sl, fp, lr}
     4d8:	e281500b 	add	r5, r1, #11
     4dc:	e3550016 	cmp	r5, #22
     4e0:	e24dd00c 	sub	sp, sp, #12
     4e4:	e1a06000 	mov	r6, r0
     4e8:	8a000023 	bhi	57c <_malloc_r+0xa8>
     4ec:	e3510010 	cmp	r1, #16
     4f0:	8a00001a 	bhi	560 <_malloc_r+0x8c>
     4f4:	eb000229 	bl	da0 <__malloc_lock>
     4f8:	e3a05010 	mov	r5, #16
     4fc:	e3a03018 	mov	r3, #24
     500:	e3a00002 	mov	r0, #2
     504:	e59f776c 	ldr	r7, [pc, #1900]	; c78 <_malloc_r+0x7a4>
     508:	e0873003 	add	r3, r7, r3
     50c:	e5934004 	ldr	r4, [r3, #4]
     510:	e2432008 	sub	r2, r3, #8
     514:	e1540002 	cmp	r4, r2
     518:	0a00003b 	beq	60c <_malloc_r+0x138>
     51c:	e5943004 	ldr	r3, [r4, #4]
     520:	e3c33003 	bic	r3, r3, #3
     524:	e0843003 	add	r3, r4, r3
     528:	e5932004 	ldr	r2, [r3, #4]
     52c:	e594100c 	ldr	r1, [r4, #12]
     530:	e594c008 	ldr	ip, [r4, #8]
     534:	e3822001 	orr	r2, r2, #1
     538:	e58c100c 	str	r1, [ip, #12]
     53c:	e1a00006 	mov	r0, r6
     540:	e581c008 	str	ip, [r1, #8]
     544:	e2844008 	add	r4, r4, #8
     548:	e5832004 	str	r2, [r3, #4]
     54c:	eb000214 	bl	da4 <__malloc_unlock>
     550:	e1a00004 	mov	r0, r4
     554:	e28dd00c 	add	sp, sp, #12
     558:	e8bd4ff0 	pop	{r4, r5, r6, r7, r8, r9, sl, fp, lr}
     55c:	e12fff1e 	bx	lr
     560:	e3a0300c 	mov	r3, #12
     564:	e3a04000 	mov	r4, #0
     568:	e5863000 	str	r3, [r6]
     56c:	e1a00004 	mov	r0, r4
     570:	e28dd00c 	add	sp, sp, #12
     574:	e8bd4ff0 	pop	{r4, r5, r6, r7, r8, r9, sl, fp, lr}
     578:	e12fff1e 	bx	lr
     57c:	e3c55007 	bic	r5, r5, #7
     580:	e1510005 	cmp	r1, r5
     584:	93a01000 	movls	r1, #0
     588:	83a01001 	movhi	r1, #1
     58c:	e1913fa5 	orrs	r3, r1, r5, lsr #31
     590:	1afffff2 	bne	560 <_malloc_r+0x8c>
     594:	eb000201 	bl	da0 <__malloc_lock>
     598:	e3550f7e 	cmp	r5, #504	; 0x1f8
     59c:	3a000127 	bcc	a40 <_malloc_r+0x56c>
     5a0:	e1b034a5 	lsrs	r3, r5, #9
     5a4:	0a0000aa 	beq	854 <_malloc_r+0x380>
     5a8:	e3530004 	cmp	r3, #4
     5ac:	8a000109 	bhi	9d8 <_malloc_r+0x504>
     5b0:	e1a03325 	lsr	r3, r5, #6
     5b4:	e2830039 	add	r0, r3, #57	; 0x39
     5b8:	e283c038 	add	ip, r3, #56	; 0x38
     5bc:	e1a01180 	lsl	r1, r0, #3
     5c0:	e59f76b0 	ldr	r7, [pc, #1712]	; c78 <_malloc_r+0x7a4>
     5c4:	e0871001 	add	r1, r7, r1
     5c8:	e5914004 	ldr	r4, [r1, #4]
     5cc:	e2411008 	sub	r1, r1, #8
     5d0:	e1510004 	cmp	r1, r4
     5d4:	1a000005 	bne	5f0 <_malloc_r+0x11c>
     5d8:	ea00000f 	b	61c <_malloc_r+0x148>
     5dc:	e3520000 	cmp	r2, #0
     5e0:	aaffffcf 	bge	524 <_malloc_r+0x50>
     5e4:	e594400c 	ldr	r4, [r4, #12]
     5e8:	e1510004 	cmp	r1, r4
     5ec:	0a00000a 	beq	61c <_malloc_r+0x148>
     5f0:	e5943004 	ldr	r3, [r4, #4]
     5f4:	e3c33003 	bic	r3, r3, #3
     5f8:	e0432005 	sub	r2, r3, r5
     5fc:	e352000f 	cmp	r2, #15
     600:	dafffff5 	ble	5dc <_malloc_r+0x108>
     604:	e1a0000c 	mov	r0, ip
     608:	ea000003 	b	61c <_malloc_r+0x148>
     60c:	e593400c 	ldr	r4, [r3, #12]
     610:	e1530004 	cmp	r3, r4
     614:	02800002 	addeq	r0, r0, #2
     618:	1affffbf 	bne	51c <_malloc_r+0x48>
     61c:	e5974010 	ldr	r4, [r7, #16]
     620:	e59fc654 	ldr	ip, [pc, #1620]	; c7c <_malloc_r+0x7a8>
     624:	e154000c 	cmp	r4, ip
     628:	05973004 	ldreq	r3, [r7, #4]
     62c:	0a000018 	beq	694 <_malloc_r+0x1c0>
     630:	e5943004 	ldr	r3, [r4, #4]
     634:	e3c33003 	bic	r3, r3, #3
     638:	e0432005 	sub	r2, r3, r5
     63c:	e352000f 	cmp	r2, #15
     640:	ca000101 	bgt	a4c <_malloc_r+0x578>
     644:	e3520000 	cmp	r2, #0
     648:	e587c014 	str	ip, [r7, #20]
     64c:	e587c010 	str	ip, [r7, #16]
     650:	aa0000b0 	bge	918 <_malloc_r+0x444>
     654:	e3530c02 	cmp	r3, #512	; 0x200
     658:	2a0000c3 	bcs	96c <_malloc_r+0x498>
     65c:	e3a08001 	mov	r8, #1
     660:	e5971004 	ldr	r1, [r7, #4]
     664:	e1a031a3 	lsr	r3, r3, #3
     668:	e083e008 	add	lr, r3, r8
     66c:	e1a03143 	asr	r3, r3, #2
     670:	e1813318 	orr	r3, r1, r8, lsl r3
     674:	e087218e 	add	r2, r7, lr, lsl #3
     678:	e797118e 	ldr	r1, [r7, lr, lsl #3]
     67c:	e2422008 	sub	r2, r2, #8
     680:	e584200c 	str	r2, [r4, #12]
     684:	e5841008 	str	r1, [r4, #8]
     688:	e5873004 	str	r3, [r7, #4]
     68c:	e787418e 	str	r4, [r7, lr, lsl #3]
     690:	e581400c 	str	r4, [r1, #12]
     694:	e3a01001 	mov	r1, #1
     698:	e1a02140 	asr	r2, r0, #2
     69c:	e1a0e211 	lsl	lr, r1, r2
     6a0:	e15e0003 	cmp	lr, r3
     6a4:	9a00006e 	bls	864 <_malloc_r+0x390>
     6a8:	e5974008 	ldr	r4, [r7, #8]
     6ac:	e5948004 	ldr	r8, [r4, #4]
     6b0:	e3c88003 	bic	r8, r8, #3
     6b4:	e1580005 	cmp	r8, r5
     6b8:	23a02000 	movcs	r2, #0
     6bc:	33a02001 	movcc	r2, #1
     6c0:	e0483005 	sub	r3, r8, r5
     6c4:	e353000f 	cmp	r3, #15
     6c8:	d3822001 	orrle	r2, r2, #1
     6cc:	e3520000 	cmp	r2, #0
     6d0:	0a000098 	beq	938 <_malloc_r+0x464>
     6d4:	e59f95a4 	ldr	r9, [pc, #1444]	; c80 <_malloc_r+0x7ac>
     6d8:	e5972408 	ldr	r2, [r7, #1032]	; 0x408
     6dc:	e5993000 	ldr	r3, [r9]
     6e0:	e3720001 	cmn	r2, #1
     6e4:	e0853003 	add	r3, r5, r3
     6e8:	12833a01 	addne	r3, r3, #4096	; 0x1000
     6ec:	1283300f 	addne	r3, r3, #15
     6f0:	13c32eff 	bicne	r2, r3, #4080	; 0xff0
     6f4:	02832010 	addeq	r2, r3, #16
     6f8:	13c2200f 	bicne	r2, r2, #15
     6fc:	e1a01002 	mov	r1, r2
     700:	e1a00006 	mov	r0, r6
     704:	e58d2000 	str	r2, [sp]
     708:	eb0001a6 	bl	da8 <_sbrk_r>
     70c:	e3700001 	cmn	r0, #1
     710:	e084a008 	add	sl, r4, r8
     714:	e1a0b000 	mov	fp, r0
     718:	e59d2000 	ldr	r2, [sp]
     71c:	0a000117 	beq	b80 <_malloc_r+0x6ac>
     720:	e1540007 	cmp	r4, r7
     724:	115a0000 	cmpne	sl, r0
     728:	8a000114 	bhi	b80 <_malloc_r+0x6ac>
     72c:	e5993004 	ldr	r3, [r9, #4]
     730:	e15a0000 	cmp	sl, r0
     734:	e0823003 	add	r3, r2, r3
     738:	e5893004 	str	r3, [r9, #4]
     73c:	0a000106 	beq	b5c <_malloc_r+0x688>
     740:	e5971408 	ldr	r1, [r7, #1032]	; 0x408
     744:	e3710001 	cmn	r1, #1
     748:	104ba00a 	subne	sl, fp, sl
     74c:	108a3003 	addne	r3, sl, r3
     750:	0587b408 	streq	fp, [r7, #1032]	; 0x408
     754:	15893004 	strne	r3, [r9, #4]
     758:	e21b3007 	ands	r3, fp, #7
     75c:	1a0000d0 	bne	aa4 <_malloc_r+0x5d0>
     760:	e08ba002 	add	sl, fp, r2
     764:	e26aa000 	rsb	sl, sl, #0
     768:	e1a0aa0a 	lsl	sl, sl, #20
     76c:	e1a0aa2a 	lsr	sl, sl, #20
     770:	e1a0100a 	mov	r1, sl
     774:	e1a00006 	mov	r0, r6
     778:	e58d3004 	str	r3, [sp, #4]
     77c:	e58d2000 	str	r2, [sp]
     780:	eb000188 	bl	da8 <_sbrk_r>
     784:	e89d000c 	ldm	sp, {r2, r3}
     788:	e3700001 	cmn	r0, #1
     78c:	01a0a003 	moveq	sl, r3
     790:	0a000001 	beq	79c <_malloc_r+0x2c8>
     794:	e040200b 	sub	r2, r0, fp
     798:	e082200a 	add	r2, r2, sl
     79c:	e5993004 	ldr	r3, [r9, #4]
     7a0:	e3822001 	orr	r2, r2, #1
     7a4:	e08a3003 	add	r3, sl, r3
     7a8:	e1540007 	cmp	r4, r7
     7ac:	e587b008 	str	fp, [r7, #8]
     7b0:	e5893004 	str	r3, [r9, #4]
     7b4:	e58b2004 	str	r2, [fp, #4]
     7b8:	0a000107 	beq	bdc <_malloc_r+0x708>
     7bc:	e358000f 	cmp	r8, #15
     7c0:	93a03001 	movls	r3, #1
     7c4:	958b3004 	strls	r3, [fp, #4]
     7c8:	9a00001d 	bls	844 <_malloc_r+0x370>
     7cc:	e3a00005 	mov	r0, #5
     7d0:	e5941004 	ldr	r1, [r4, #4]
     7d4:	e248200c 	sub	r2, r8, #12
     7d8:	e3c22007 	bic	r2, r2, #7
     7dc:	e2011001 	and	r1, r1, #1
     7e0:	e1811002 	orr	r1, r1, r2
     7e4:	e352000f 	cmp	r2, #15
     7e8:	e0842002 	add	r2, r4, r2
     7ec:	e5841004 	str	r1, [r4, #4]
     7f0:	e5820004 	str	r0, [r2, #4]
     7f4:	e5820008 	str	r0, [r2, #8]
     7f8:	8a000108 	bhi	c20 <_malloc_r+0x74c>
     7fc:	e1a0400b 	mov	r4, fp
     800:	e59b2004 	ldr	r2, [fp, #4]
     804:	e599102c 	ldr	r1, [r9, #44]	; 0x2c
     808:	e1510003 	cmp	r1, r3
     80c:	e5991030 	ldr	r1, [r9, #48]	; 0x30
     810:	3589302c 	strcc	r3, [r9, #44]	; 0x2c
     814:	e1510003 	cmp	r1, r3
     818:	35893030 	strcc	r3, [r9, #48]	; 0x30
     81c:	e3c22003 	bic	r2, r2, #3
     820:	e0423005 	sub	r3, r2, r5
     824:	e353000f 	cmp	r3, #15
     828:	c3a01000 	movgt	r1, #0
     82c:	d3a01001 	movle	r1, #1
     830:	e1520005 	cmp	r2, r5
     834:	21a02001 	movcs	r2, r1
     838:	33812001 	orrcc	r2, r1, #1
     83c:	e3520000 	cmp	r2, #0
     840:	0a00003c 	beq	938 <_malloc_r+0x464>
     844:	e1a00006 	mov	r0, r6
     848:	eb000155 	bl	da4 <__malloc_unlock>
     84c:	e3a04000 	mov	r4, #0
     850:	eaffff45 	b	56c <_malloc_r+0x98>
     854:	e3a01c02 	mov	r1, #512	; 0x200
     858:	e3a00040 	mov	r0, #64	; 0x40
     85c:	e3a0c03f 	mov	ip, #63	; 0x3f
     860:	eaffff56 	b	5c0 <_malloc_r+0xec>
     864:	e11e0003 	tst	lr, r3
     868:	1a000008 	bne	890 <_malloc_r+0x3bc>
     86c:	e1a0e11e 	lsl	lr, lr, r1
     870:	e3c00003 	bic	r0, r0, #3
     874:	e11e0003 	tst	lr, r3
     878:	e2800004 	add	r0, r0, #4
     87c:	1a000003 	bne	890 <_malloc_r+0x3bc>
     880:	e1a0e08e 	lsl	lr, lr, #1
     884:	e11e0003 	tst	lr, r3
     888:	e2800004 	add	r0, r0, #4
     88c:	0afffffb 	beq	880 <_malloc_r+0x3ac>
     890:	e0879180 	add	r9, r7, r0, lsl #3
     894:	e1a01009 	mov	r1, r9
     898:	e1a04000 	mov	r4, r0
     89c:	e591800c 	ldr	r8, [r1, #12]
     8a0:	e1510008 	cmp	r1, r8
     8a4:	1a000005 	bne	8c0 <_malloc_r+0x3ec>
     8a8:	ea000053 	b	9fc <_malloc_r+0x528>
     8ac:	e3520000 	cmp	r2, #0
     8b0:	aa000056 	bge	a10 <_malloc_r+0x53c>
     8b4:	e598800c 	ldr	r8, [r8, #12]
     8b8:	e1510008 	cmp	r1, r8
     8bc:	0a00004e 	beq	9fc <_malloc_r+0x528>
     8c0:	e5983004 	ldr	r3, [r8, #4]
     8c4:	e3c33003 	bic	r3, r3, #3
     8c8:	e0432005 	sub	r2, r3, r5
     8cc:	e352000f 	cmp	r2, #15
     8d0:	dafffff5 	ble	8ac <_malloc_r+0x3d8>
     8d4:	e598100c 	ldr	r1, [r8, #12]
     8d8:	e598e008 	ldr	lr, [r8, #8]
     8dc:	e3854001 	orr	r4, r5, #1
     8e0:	e5884004 	str	r4, [r8, #4]
     8e4:	e0885005 	add	r5, r8, r5
     8e8:	e3824001 	orr	r4, r2, #1
     8ec:	e58e100c 	str	r1, [lr, #12]
     8f0:	e1a00006 	mov	r0, r6
     8f4:	e581e008 	str	lr, [r1, #8]
     8f8:	e5875014 	str	r5, [r7, #20]
     8fc:	e5875010 	str	r5, [r7, #16]
     900:	e9851010 	stmib	r5, {r4, ip}
     904:	e585c00c 	str	ip, [r5, #12]
     908:	e7882003 	str	r2, [r8, r3]
     90c:	eb000124 	bl	da4 <__malloc_unlock>
     910:	e2884008 	add	r4, r8, #8
     914:	eaffff14 	b	56c <_malloc_r+0x98>
     918:	e0843003 	add	r3, r4, r3
     91c:	e5932004 	ldr	r2, [r3, #4]
     920:	e3822001 	orr	r2, r2, #1
     924:	e1a00006 	mov	r0, r6
     928:	e5832004 	str	r2, [r3, #4]
     92c:	e2844008 	add	r4, r4, #8
     930:	eb00011b 	bl	da4 <__malloc_unlock>
     934:	eaffff0c 	b	56c <_malloc_r+0x98>
     938:	e3852001 	orr	r2, r5, #1
     93c:	e3833001 	orr	r3, r3, #1
     940:	e0845005 	add	r5, r4, r5
     944:	e5842004 	str	r2, [r4, #4]
     948:	e1a00006 	mov	r0, r6
     94c:	e5875008 	str	r5, [r7, #8]
     950:	e2844008 	add	r4, r4, #8
     954:	e5853004 	str	r3, [r5, #4]
     958:	eb000111 	bl	da4 <__malloc_unlock>
     95c:	e1a00004 	mov	r0, r4
     960:	e28dd00c 	add	sp, sp, #12
     964:	e8bd4ff0 	pop	{r4, r5, r6, r7, r8, r9, sl, fp, lr}
     968:	e12fff1e 	bx	lr
     96c:	e1a024a3 	lsr	r2, r3, #9
     970:	e3520004 	cmp	r2, #4
     974:	9a000041 	bls	a80 <_malloc_r+0x5ac>
     978:	e3520014 	cmp	r2, #20
     97c:	8a000088 	bhi	ba4 <_malloc_r+0x6d0>
     980:	e282805c 	add	r8, r2, #92	; 0x5c
     984:	e1a08188 	lsl	r8, r8, #3
     988:	e282105b 	add	r1, r2, #91	; 0x5b
     98c:	e087e008 	add	lr, r7, r8
     990:	e7972008 	ldr	r2, [r7, r8]
     994:	e24ee008 	sub	lr, lr, #8
     998:	e15e0002 	cmp	lr, r2
     99c:	0a00007a 	beq	b8c <_malloc_r+0x6b8>
     9a0:	e5921004 	ldr	r1, [r2, #4]
     9a4:	e3c11003 	bic	r1, r1, #3
     9a8:	e1510003 	cmp	r1, r3
     9ac:	9a000002 	bls	9bc <_malloc_r+0x4e8>
     9b0:	e5922008 	ldr	r2, [r2, #8]
     9b4:	e15e0002 	cmp	lr, r2
     9b8:	1afffff8 	bne	9a0 <_malloc_r+0x4cc>
     9bc:	e592e00c 	ldr	lr, [r2, #12]
     9c0:	e5973004 	ldr	r3, [r7, #4]
     9c4:	e584e00c 	str	lr, [r4, #12]
     9c8:	e5842008 	str	r2, [r4, #8]
     9cc:	e58e4008 	str	r4, [lr, #8]
     9d0:	e582400c 	str	r4, [r2, #12]
     9d4:	eaffff2e 	b	694 <_malloc_r+0x1c0>
     9d8:	e3530014 	cmp	r3, #20
     9dc:	9a00002c 	bls	a94 <_malloc_r+0x5c0>
     9e0:	e3530054 	cmp	r3, #84	; 0x54
     9e4:	8a000075 	bhi	bc0 <_malloc_r+0x6ec>
     9e8:	e1a03625 	lsr	r3, r5, #12
     9ec:	e283006f 	add	r0, r3, #111	; 0x6f
     9f0:	e283c06e 	add	ip, r3, #110	; 0x6e
     9f4:	e1a01180 	lsl	r1, r0, #3
     9f8:	eafffef0 	b	5c0 <_malloc_r+0xec>
     9fc:	e2844001 	add	r4, r4, #1
     a00:	e3140003 	tst	r4, #3
     a04:	e2811008 	add	r1, r1, #8
     a08:	1affffa3 	bne	89c <_malloc_r+0x3c8>
     a0c:	ea00003d 	b	b08 <_malloc_r+0x634>
     a10:	e1a04008 	mov	r4, r8
     a14:	e0883003 	add	r3, r8, r3
     a18:	e5932004 	ldr	r2, [r3, #4]
     a1c:	e598100c 	ldr	r1, [r8, #12]
     a20:	e5b4c008 	ldr	ip, [r4, #8]!
     a24:	e3822001 	orr	r2, r2, #1
     a28:	e5832004 	str	r2, [r3, #4]
     a2c:	e1a00006 	mov	r0, r6
     a30:	e58c100c 	str	r1, [ip, #12]
     a34:	e581c008 	str	ip, [r1, #8]
     a38:	eb0000d9 	bl	da4 <__malloc_unlock>
     a3c:	eafffeca 	b	56c <_malloc_r+0x98>
     a40:	e1a001a5 	lsr	r0, r5, #3
     a44:	e2853008 	add	r3, r5, #8
     a48:	eafffead 	b	504 <_malloc_r+0x30>
     a4c:	e385e001 	orr	lr, r5, #1
     a50:	e3821001 	orr	r1, r2, #1
     a54:	e0845005 	add	r5, r4, r5
     a58:	e584e004 	str	lr, [r4, #4]
     a5c:	e1a00006 	mov	r0, r6
     a60:	e5875014 	str	r5, [r7, #20]
     a64:	e5875010 	str	r5, [r7, #16]
     a68:	e585c00c 	str	ip, [r5, #12]
     a6c:	e9851002 	stmib	r5, {r1, ip}
     a70:	e7842003 	str	r2, [r4, r3]
     a74:	eb0000ca 	bl	da4 <__malloc_unlock>
     a78:	e2844008 	add	r4, r4, #8
     a7c:	eafffeba 	b	56c <_malloc_r+0x98>
     a80:	e1a02323 	lsr	r2, r3, #6
     a84:	e2828039 	add	r8, r2, #57	; 0x39
     a88:	e1a08188 	lsl	r8, r8, #3
     a8c:	e2821038 	add	r1, r2, #56	; 0x38
     a90:	eaffffbd 	b	98c <_malloc_r+0x4b8>
     a94:	e283005c 	add	r0, r3, #92	; 0x5c
     a98:	e283c05b 	add	ip, r3, #91	; 0x5b
     a9c:	e1a01180 	lsl	r1, r0, #3
     aa0:	eafffec6 	b	5c0 <_malloc_r+0xec>
     aa4:	e2631008 	rsb	r1, r3, #8
     aa8:	e08bb001 	add	fp, fp, r1
     aac:	e2631a01 	rsb	r1, r3, #4096	; 0x1000
     ab0:	e08b2002 	add	r2, fp, r2
     ab4:	e2811008 	add	r1, r1, #8
     ab8:	e0411002 	sub	r1, r1, r2
     abc:	e1a0aa01 	lsl	sl, r1, #20
     ac0:	e1a0aa2a 	lsr	sl, sl, #20
     ac4:	e1a0100a 	mov	r1, sl
     ac8:	e1a00006 	mov	r0, r6
     acc:	e58d3004 	str	r3, [sp, #4]
     ad0:	e58d2000 	str	r2, [sp]
     ad4:	eb0000b3 	bl	da8 <_sbrk_r>
     ad8:	e3700001 	cmn	r0, #1
     adc:	e89d000c 	ldm	sp, {r2, r3}
     ae0:	1affff2b 	bne	794 <_malloc_r+0x2c0>
     ae4:	e2433008 	sub	r3, r3, #8
     ae8:	e0822003 	add	r2, r2, r3
     aec:	e042200b 	sub	r2, r2, fp
     af0:	e3a0a000 	mov	sl, #0
     af4:	eaffff28 	b	79c <_malloc_r+0x2c8>
     af8:	e4193008 	ldr	r3, [r9], #-8
     afc:	e1530009 	cmp	r3, r9
     b00:	e2400001 	sub	r0, r0, #1
     b04:	1a000059 	bne	c70 <_malloc_r+0x79c>
     b08:	e3100003 	tst	r0, #3
     b0c:	1afffff9 	bne	af8 <_malloc_r+0x624>
     b10:	e5973004 	ldr	r3, [r7, #4]
     b14:	e1c3300e 	bic	r3, r3, lr
     b18:	e5873004 	str	r3, [r7, #4]
     b1c:	e1b0e08e 	lsls	lr, lr, #1
     b20:	13a02001 	movne	r2, #1
     b24:	03a02000 	moveq	r2, #0
     b28:	e15e0003 	cmp	lr, r3
     b2c:	83a02000 	movhi	r2, #0
     b30:	92022001 	andls	r2, r2, #1
     b34:	e3520000 	cmp	r2, #0
     b38:	0afffeda 	beq	6a8 <_malloc_r+0x1d4>
     b3c:	e11e0003 	tst	lr, r3
     b40:	1a000003 	bne	b54 <_malloc_r+0x680>
     b44:	e1a0e08e 	lsl	lr, lr, #1
     b48:	e11e0003 	tst	lr, r3
     b4c:	e2844004 	add	r4, r4, #4
     b50:	0afffffb 	beq	b44 <_malloc_r+0x670>
     b54:	e1a00004 	mov	r0, r4
     b58:	eaffff4c 	b	890 <_malloc_r+0x3bc>
     b5c:	e1a01a0a 	lsl	r1, sl, #20
     b60:	e1a01a21 	lsr	r1, r1, #20
     b64:	e3510000 	cmp	r1, #0
     b68:	1afffef4 	bne	740 <_malloc_r+0x26c>
     b6c:	e0882002 	add	r2, r8, r2
     b70:	e5974008 	ldr	r4, [r7, #8]
     b74:	e3822001 	orr	r2, r2, #1
     b78:	e5842004 	str	r2, [r4, #4]
     b7c:	eaffff20 	b	804 <_malloc_r+0x330>
     b80:	e5974008 	ldr	r4, [r7, #8]
     b84:	e5942004 	ldr	r2, [r4, #4]
     b88:	eaffff23 	b	81c <_malloc_r+0x348>
     b8c:	e3a08001 	mov	r8, #1
     b90:	e5973004 	ldr	r3, [r7, #4]
     b94:	e1a01141 	asr	r1, r1, #2
     b98:	e1833118 	orr	r3, r3, r8, lsl r1
     b9c:	e5873004 	str	r3, [r7, #4]
     ba0:	eaffff87 	b	9c4 <_malloc_r+0x4f0>
     ba4:	e3520054 	cmp	r2, #84	; 0x54
     ba8:	8a00000d 	bhi	be4 <_malloc_r+0x710>
     bac:	e1a02623 	lsr	r2, r3, #12
     bb0:	e282806f 	add	r8, r2, #111	; 0x6f
     bb4:	e1a08188 	lsl	r8, r8, #3
     bb8:	e282106e 	add	r1, r2, #110	; 0x6e
     bbc:	eaffff72 	b	98c <_malloc_r+0x4b8>
     bc0:	e3530f55 	cmp	r3, #340	; 0x154
     bc4:	8a00000d 	bhi	c00 <_malloc_r+0x72c>
     bc8:	e1a037a5 	lsr	r3, r5, #15
     bcc:	e2830078 	add	r0, r3, #120	; 0x78
     bd0:	e283c077 	add	ip, r3, #119	; 0x77
     bd4:	e1a01180 	lsl	r1, r0, #3
     bd8:	eafffe78 	b	5c0 <_malloc_r+0xec>
     bdc:	e1a0400b 	mov	r4, fp
     be0:	eaffff07 	b	804 <_malloc_r+0x330>
     be4:	e3520f55 	cmp	r2, #340	; 0x154
     be8:	8a000013 	bhi	c3c <_malloc_r+0x768>
     bec:	e1a027a3 	lsr	r2, r3, #15
     bf0:	e2828078 	add	r8, r2, #120	; 0x78
     bf4:	e1a08188 	lsl	r8, r8, #3
     bf8:	e2821077 	add	r1, r2, #119	; 0x77
     bfc:	eaffff62 	b	98c <_malloc_r+0x4b8>
     c00:	e59f207c 	ldr	r2, [pc, #124]	; c84 <_malloc_r+0x7b0>
     c04:	e1530002 	cmp	r3, r2
     c08:	8a000014 	bhi	c60 <_malloc_r+0x78c>
     c0c:	e1a03925 	lsr	r3, r5, #18
     c10:	e283007d 	add	r0, r3, #125	; 0x7d
     c14:	e283c07c 	add	ip, r3, #124	; 0x7c
     c18:	e1a01180 	lsl	r1, r0, #3
     c1c:	eafffe67 	b	5c0 <_malloc_r+0xec>
     c20:	e2841008 	add	r1, r4, #8
     c24:	e1a00006 	mov	r0, r6
     c28:	eb000115 	bl	1084 <_free_r>
     c2c:	e5974008 	ldr	r4, [r7, #8]
     c30:	e5993004 	ldr	r3, [r9, #4]
     c34:	e5942004 	ldr	r2, [r4, #4]
     c38:	eafffef1 	b	804 <_malloc_r+0x330>
     c3c:	e59f1040 	ldr	r1, [pc, #64]	; c84 <_malloc_r+0x7b0>
     c40:	e1520001 	cmp	r2, r1
     c44:	91a02923 	lsrls	r2, r3, #18
     c48:	9282807d 	addls	r8, r2, #125	; 0x7d
     c4c:	91a08188 	lslls	r8, r8, #3
     c50:	9282107c 	addls	r1, r2, #124	; 0x7c
     c54:	83a08ffe 	movhi	r8, #1016	; 0x3f8
     c58:	83a0107e 	movhi	r1, #126	; 0x7e
     c5c:	eaffff4a 	b	98c <_malloc_r+0x4b8>
     c60:	e3a01ffe 	mov	r1, #1016	; 0x3f8
     c64:	e3a0007f 	mov	r0, #127	; 0x7f
     c68:	e3a0c07e 	mov	ip, #126	; 0x7e
     c6c:	eafffe53 	b	5c0 <_malloc_r+0xec>
     c70:	e5973004 	ldr	r3, [r7, #4]
     c74:	eaffffa8 	b	b1c <_malloc_r+0x648>
     c78:	20000460 	.word	0x20000460
     c7c:	20000468 	.word	0x20000468
     c80:	20000898 	.word	0x20000898
     c84:	00000554 	.word	0x00000554

00000c88 <memset>:
     c88:	e3100003 	tst	r0, #3
     c8c:	0a00003f 	beq	d90 <memset+0x108>
     c90:	e3520000 	cmp	r2, #0
     c94:	e2422001 	sub	r2, r2, #1
     c98:	012fff1e 	bxeq	lr
     c9c:	e201c0ff 	and	ip, r1, #255	; 0xff
     ca0:	e1a03000 	mov	r3, r0
     ca4:	ea000002 	b	cb4 <memset+0x2c>
     ca8:	e2422001 	sub	r2, r2, #1
     cac:	e3720001 	cmn	r2, #1
     cb0:	012fff1e 	bxeq	lr
     cb4:	e4c3c001 	strb	ip, [r3], #1
     cb8:	e3130003 	tst	r3, #3
     cbc:	1afffff9 	bne	ca8 <memset+0x20>
     cc0:	e3520003 	cmp	r2, #3
     cc4:	9a000027 	bls	d68 <memset+0xe0>
     cc8:	e92d4030 	push	{r4, r5, lr}
     ccc:	e201e0ff 	and	lr, r1, #255	; 0xff
     cd0:	e18ee40e 	orr	lr, lr, lr, lsl #8
     cd4:	e352000f 	cmp	r2, #15
     cd8:	e18ee80e 	orr	lr, lr, lr, lsl #16
     cdc:	9a00002d 	bls	d98 <memset+0x110>
     ce0:	e2424010 	sub	r4, r2, #16
     ce4:	e1a04224 	lsr	r4, r4, #4
     ce8:	e2835020 	add	r5, r3, #32
     cec:	e0855204 	add	r5, r5, r4, lsl #4
     cf0:	e283c010 	add	ip, r3, #16
     cf4:	e50ce010 	str	lr, [ip, #-16]
     cf8:	e50ce00c 	str	lr, [ip, #-12]
     cfc:	e50ce008 	str	lr, [ip, #-8]
     d00:	e50ce004 	str	lr, [ip, #-4]
     d04:	e28cc010 	add	ip, ip, #16
     d08:	e15c0005 	cmp	ip, r5
     d0c:	1afffff8 	bne	cf4 <memset+0x6c>
     d10:	e284c001 	add	ip, r4, #1
     d14:	e312000c 	tst	r2, #12
     d18:	e083c20c 	add	ip, r3, ip, lsl #4
     d1c:	e202200f 	and	r2, r2, #15
     d20:	0a000018 	beq	d88 <memset+0x100>
     d24:	e2423004 	sub	r3, r2, #4
     d28:	e3c33003 	bic	r3, r3, #3
     d2c:	e2833004 	add	r3, r3, #4
     d30:	e08c3003 	add	r3, ip, r3
     d34:	e48ce004 	str	lr, [ip], #4
     d38:	e153000c 	cmp	r3, ip
     d3c:	1afffffc 	bne	d34 <memset+0xac>
     d40:	e2022003 	and	r2, r2, #3
     d44:	e3520000 	cmp	r2, #0
     d48:	0a000004 	beq	d60 <memset+0xd8>
     d4c:	e20110ff 	and	r1, r1, #255	; 0xff
     d50:	e0832002 	add	r2, r3, r2
     d54:	e4c31001 	strb	r1, [r3], #1
     d58:	e1520003 	cmp	r2, r3
     d5c:	1afffffc 	bne	d54 <memset+0xcc>
     d60:	e8bd4030 	pop	{r4, r5, lr}
     d64:	e12fff1e 	bx	lr
     d68:	e3520000 	cmp	r2, #0
     d6c:	012fff1e 	bxeq	lr
     d70:	e20110ff 	and	r1, r1, #255	; 0xff
     d74:	e0832002 	add	r2, r3, r2
     d78:	e4c31001 	strb	r1, [r3], #1
     d7c:	e1520003 	cmp	r2, r3
     d80:	1afffffc 	bne	d78 <memset+0xf0>
     d84:	e12fff1e 	bx	lr
     d88:	e1a0300c 	mov	r3, ip
     d8c:	eaffffec 	b	d44 <memset+0xbc>
     d90:	e1a03000 	mov	r3, r0
     d94:	eaffffc9 	b	cc0 <memset+0x38>
     d98:	e1a0c003 	mov	ip, r3
     d9c:	eaffffe0 	b	d24 <memset+0x9c>

00000da0 <__malloc_lock>:
     da0:	e12fff1e 	bx	lr

00000da4 <__malloc_unlock>:
     da4:	e12fff1e 	bx	lr

00000da8 <_sbrk_r>:
     da8:	e3a03000 	mov	r3, #0
     dac:	e92d4070 	push	{r4, r5, r6, lr}
     db0:	e59f4030 	ldr	r4, [pc, #48]	; de8 <_sbrk_r+0x40>
     db4:	e1a05000 	mov	r5, r0
     db8:	e1a00001 	mov	r0, r1
     dbc:	e5843000 	str	r3, [r4]
     dc0:	eb0001ae 	bl	1480 <_sbrk>
     dc4:	e3700001 	cmn	r0, #1
     dc8:	0a000001 	beq	dd4 <_sbrk_r+0x2c>
     dcc:	e8bd4070 	pop	{r4, r5, r6, lr}
     dd0:	e12fff1e 	bx	lr
     dd4:	e5943000 	ldr	r3, [r4]
     dd8:	e3530000 	cmp	r3, #0
     ddc:	15853000 	strne	r3, [r5]
     de0:	e8bd4070 	pop	{r4, r5, r6, lr}
     de4:	e12fff1e 	bx	lr
     de8:	200008d0 	.word	0x200008d0

00000dec <__register_exitproc>:
     dec:	e59fc080 	ldr	ip, [pc, #128]	; e74 <__register_exitproc+0x88>
     df0:	e92d4070 	push	{r4, r5, r6, lr}
     df4:	e59ce000 	ldr	lr, [ip]
     df8:	e59ec148 	ldr	ip, [lr, #328]	; 0x148
     dfc:	e35c0000 	cmp	ip, #0
     e00:	028ecf53 	addeq	ip, lr, #332	; 0x14c
     e04:	058ec148 	streq	ip, [lr, #328]	; 0x148
     e08:	e59ce004 	ldr	lr, [ip, #4]
     e0c:	e35e001f 	cmp	lr, #31
     e10:	ca000015 	bgt	e6c <__register_exitproc+0x80>
     e14:	e3500000 	cmp	r0, #0
     e18:	1a000006 	bne	e38 <__register_exitproc+0x4c>
     e1c:	e3a00000 	mov	r0, #0
     e20:	e28e3001 	add	r3, lr, #1
     e24:	e28ee002 	add	lr, lr, #2
     e28:	e58c3004 	str	r3, [ip, #4]
     e2c:	e78c110e 	str	r1, [ip, lr, lsl #2]
     e30:	e8bd4070 	pop	{r4, r5, r6, lr}
     e34:	e12fff1e 	bx	lr
     e38:	e3a04001 	mov	r4, #1
     e3c:	e08c610e 	add	r6, ip, lr, lsl #2
     e40:	e5862088 	str	r2, [r6, #136]	; 0x88
     e44:	e59c5188 	ldr	r5, [ip, #392]	; 0x188
     e48:	e1a02e14 	lsl	r2, r4, lr
     e4c:	e1855002 	orr	r5, r5, r2
     e50:	e58c5188 	str	r5, [ip, #392]	; 0x188
     e54:	e5863108 	str	r3, [r6, #264]	; 0x108
     e58:	e3500002 	cmp	r0, #2
     e5c:	059c318c 	ldreq	r3, [ip, #396]	; 0x18c
     e60:	01832002 	orreq	r2, r3, r2
     e64:	058c218c 	streq	r2, [ip, #396]	; 0x18c
     e68:	eaffffeb 	b	e1c <__register_exitproc+0x30>
     e6c:	e3e00000 	mvn	r0, #0
     e70:	eaffffee 	b	e30 <__register_exitproc+0x44>
     e74:	00001528 	.word	0x00001528

00000e78 <__call_exitprocs>:
     e78:	e92d4ff0 	push	{r4, r5, r6, r7, r8, r9, sl, fp, lr}
     e7c:	e1a0a001 	mov	sl, r1
     e80:	e3a08000 	mov	r8, #0
     e84:	e59f30f4 	ldr	r3, [pc, #244]	; f80 <__call_exitprocs+0x108>
     e88:	e24dd00c 	sub	sp, sp, #12
     e8c:	e58d0004 	str	r0, [sp, #4]
     e90:	e593b000 	ldr	fp, [r3]
     e94:	e59b6148 	ldr	r6, [fp, #328]	; 0x148
     e98:	e3560000 	cmp	r6, #0
     e9c:	0a000028 	beq	f44 <__call_exitprocs+0xcc>
     ea0:	e5964004 	ldr	r4, [r6, #4]
     ea4:	e2545001 	subs	r5, r4, #1
     ea8:	4a000025 	bmi	f44 <__call_exitprocs+0xcc>
     eac:	e3a07001 	mov	r7, #1
     eb0:	e0844007 	add	r4, r4, r7
     eb4:	e0864104 	add	r4, r6, r4, lsl #2
     eb8:	ea000003 	b	ecc <__call_exitprocs+0x54>
     ebc:	e2455001 	sub	r5, r5, #1
     ec0:	e3750001 	cmn	r5, #1
     ec4:	e2444004 	sub	r4, r4, #4
     ec8:	0a00001d 	beq	f44 <__call_exitprocs+0xcc>
     ecc:	e35a0000 	cmp	sl, #0
     ed0:	0a000002 	beq	ee0 <__call_exitprocs+0x68>
     ed4:	e5943100 	ldr	r3, [r4, #256]	; 0x100
     ed8:	e153000a 	cmp	r3, sl
     edc:	1afffff6 	bne	ebc <__call_exitprocs+0x44>
     ee0:	e5963004 	ldr	r3, [r6, #4]
     ee4:	e2433001 	sub	r3, r3, #1
     ee8:	e1530005 	cmp	r3, r5
     eec:	e5943000 	ldr	r3, [r4]
     ef0:	05865004 	streq	r5, [r6, #4]
     ef4:	15848000 	strne	r8, [r4]
     ef8:	e3530000 	cmp	r3, #0
     efc:	0affffee 	beq	ebc <__call_exitprocs+0x44>
     f00:	e5962188 	ldr	r2, [r6, #392]	; 0x188
     f04:	e1a01517 	lsl	r1, r7, r5
     f08:	e1110002 	tst	r1, r2
     f0c:	e5969004 	ldr	r9, [r6, #4]
     f10:	1a00000e 	bne	f50 <__call_exitprocs+0xd8>
     f14:	e1a0e00f 	mov	lr, pc
     f18:	e12fff13 	bx	r3
     f1c:	e5963004 	ldr	r3, [r6, #4]
     f20:	e1530009 	cmp	r3, r9
     f24:	1affffda 	bne	e94 <__call_exitprocs+0x1c>
     f28:	e59b3148 	ldr	r3, [fp, #328]	; 0x148
     f2c:	e1530006 	cmp	r3, r6
     f30:	1affffd7 	bne	e94 <__call_exitprocs+0x1c>
     f34:	e2455001 	sub	r5, r5, #1
     f38:	e3750001 	cmn	r5, #1
     f3c:	e2444004 	sub	r4, r4, #4
     f40:	1affffe1 	bne	ecc <__call_exitprocs+0x54>
     f44:	e28dd00c 	add	sp, sp, #12
     f48:	e8bd4ff0 	pop	{r4, r5, r6, r7, r8, r9, sl, fp, lr}
     f4c:	e12fff1e 	bx	lr
     f50:	e596018c 	ldr	r0, [r6, #396]	; 0x18c
     f54:	e1110000 	tst	r1, r0
     f58:	e5941080 	ldr	r1, [r4, #128]	; 0x80
     f5c:	1a000003 	bne	f70 <__call_exitprocs+0xf8>
     f60:	e59d0004 	ldr	r0, [sp, #4]
     f64:	e1a0e00f 	mov	lr, pc
     f68:	e12fff13 	bx	r3
     f6c:	eaffffea 	b	f1c <__call_exitprocs+0xa4>
     f70:	e1a00001 	mov	r0, r1
     f74:	e1a0e00f 	mov	lr, pc
     f78:	e12fff13 	bx	r3
     f7c:	eaffffe6 	b	f1c <__call_exitprocs+0xa4>
     f80:	00001528 	.word	0x00001528

00000f84 <_malloc_trim_r>:
     f84:	e92d41f0 	push	{r4, r5, r6, r7, r8, lr}
     f88:	e1a04001 	mov	r4, r1
     f8c:	e59f70e4 	ldr	r7, [pc, #228]	; 1078 <_malloc_trim_r+0xf4>
     f90:	e1a06000 	mov	r6, r0
     f94:	ebffff81 	bl	da0 <__malloc_lock>
     f98:	e5973008 	ldr	r3, [r7, #8]
     f9c:	e5935004 	ldr	r5, [r3, #4]
     fa0:	e2641efe 	rsb	r1, r4, #4064	; 0xfe0
     fa4:	e281100f 	add	r1, r1, #15
     fa8:	e3c55003 	bic	r5, r5, #3
     fac:	e0811005 	add	r1, r1, r5
     fb0:	e3c11eff 	bic	r1, r1, #4080	; 0xff0
     fb4:	e3c1100f 	bic	r1, r1, #15
     fb8:	e2414a01 	sub	r4, r1, #4096	; 0x1000
     fbc:	e3540a01 	cmp	r4, #4096	; 0x1000
     fc0:	ba000006 	blt	fe0 <_malloc_trim_r+0x5c>
     fc4:	e3a01000 	mov	r1, #0
     fc8:	e1a00006 	mov	r0, r6
     fcc:	ebffff75 	bl	da8 <_sbrk_r>
     fd0:	e5973008 	ldr	r3, [r7, #8]
     fd4:	e0833005 	add	r3, r3, r5
     fd8:	e1500003 	cmp	r0, r3
     fdc:	0a000004 	beq	ff4 <_malloc_trim_r+0x70>
     fe0:	e1a00006 	mov	r0, r6
     fe4:	ebffff6e 	bl	da4 <__malloc_unlock>
     fe8:	e3a00000 	mov	r0, #0
     fec:	e8bd41f0 	pop	{r4, r5, r6, r7, r8, lr}
     ff0:	e12fff1e 	bx	lr
     ff4:	e2641000 	rsb	r1, r4, #0
     ff8:	e1a00006 	mov	r0, r6
     ffc:	ebffff69 	bl	da8 <_sbrk_r>
    1000:	e3700001 	cmn	r0, #1
    1004:	0a00000c 	beq	103c <_malloc_trim_r+0xb8>
    1008:	e59f306c 	ldr	r3, [pc, #108]	; 107c <_malloc_trim_r+0xf8>
    100c:	e5972008 	ldr	r2, [r7, #8]
    1010:	e5931000 	ldr	r1, [r3]
    1014:	e0455004 	sub	r5, r5, r4
    1018:	e3855001 	orr	r5, r5, #1
    101c:	e1a00006 	mov	r0, r6
    1020:	e0411004 	sub	r1, r1, r4
    1024:	e5825004 	str	r5, [r2, #4]
    1028:	e5831000 	str	r1, [r3]
    102c:	ebffff5c 	bl	da4 <__malloc_unlock>
    1030:	e3a00001 	mov	r0, #1
    1034:	e8bd41f0 	pop	{r4, r5, r6, r7, r8, lr}
    1038:	e12fff1e 	bx	lr
    103c:	e3a01000 	mov	r1, #0
    1040:	e1a00006 	mov	r0, r6
    1044:	ebffff57 	bl	da8 <_sbrk_r>
    1048:	e5972008 	ldr	r2, [r7, #8]
    104c:	e0403002 	sub	r3, r0, r2
    1050:	e353000f 	cmp	r3, #15
    1054:	daffffe1 	ble	fe0 <_malloc_trim_r+0x5c>
    1058:	e59f1020 	ldr	r1, [pc, #32]	; 1080 <_malloc_trim_r+0xfc>
    105c:	e591c000 	ldr	ip, [r1]
    1060:	e59f1014 	ldr	r1, [pc, #20]	; 107c <_malloc_trim_r+0xf8>
    1064:	e3833001 	orr	r3, r3, #1
    1068:	e040000c 	sub	r0, r0, ip
    106c:	e5823004 	str	r3, [r2, #4]
    1070:	e5810000 	str	r0, [r1]
    1074:	eaffffd9 	b	fe0 <_malloc_trim_r+0x5c>
    1078:	20000460 	.word	0x20000460
    107c:	2000089c 	.word	0x2000089c
    1080:	20000868 	.word	0x20000868

00001084 <_free_r>:
    1084:	e92d41f0 	push	{r4, r5, r6, r7, r8, lr}
    1088:	e2515000 	subs	r5, r1, #0
    108c:	0a000032 	beq	115c <_free_r+0xd8>
    1090:	e1a04000 	mov	r4, r0
    1094:	ebffff41 	bl	da0 <__malloc_lock>
    1098:	e5150004 	ldr	r0, [r5, #-4]
    109c:	e59fe2b0 	ldr	lr, [pc, #688]	; 1354 <_free_r+0x2d0>
    10a0:	e3c03001 	bic	r3, r0, #1
    10a4:	e245c008 	sub	ip, r5, #8
    10a8:	e08c1003 	add	r1, ip, r3
    10ac:	e59e6008 	ldr	r6, [lr, #8]
    10b0:	e5912004 	ldr	r2, [r1, #4]
    10b4:	e1560001 	cmp	r6, r1
    10b8:	e3c22003 	bic	r2, r2, #3
    10bc:	0a000063 	beq	1250 <_free_r+0x1cc>
    10c0:	e3100001 	tst	r0, #1
    10c4:	e5812004 	str	r2, [r1, #4]
    10c8:	e0810002 	add	r0, r1, r2
    10cc:	1a000024 	bne	1164 <_free_r+0xe0>
    10d0:	e5157008 	ldr	r7, [r5, #-8]
    10d4:	e04cc007 	sub	ip, ip, r7
    10d8:	e59c5008 	ldr	r5, [ip, #8]
    10dc:	e5900004 	ldr	r0, [r0, #4]
    10e0:	e28e6008 	add	r6, lr, #8
    10e4:	e1550006 	cmp	r5, r6
    10e8:	e0833007 	add	r3, r3, r7
    10ec:	e2000001 	and	r0, r0, #1
    10f0:	0a000048 	beq	1218 <_free_r+0x194>
    10f4:	e59c700c 	ldr	r7, [ip, #12]
    10f8:	e3500000 	cmp	r0, #0
    10fc:	e585700c 	str	r7, [r5, #12]
    1100:	e5875008 	str	r5, [r7, #8]
    1104:	0a000070 	beq	12cc <_free_r+0x248>
    1108:	e3832001 	orr	r2, r3, #1
    110c:	e58c2004 	str	r2, [ip, #4]
    1110:	e5813000 	str	r3, [r1]
    1114:	e3530c02 	cmp	r3, #512	; 0x200
    1118:	2a000025 	bcs	11b4 <_free_r+0x130>
    111c:	e3a05001 	mov	r5, #1
    1120:	e59e0004 	ldr	r0, [lr, #4]
    1124:	e1a031a3 	lsr	r3, r3, #3
    1128:	e0832005 	add	r2, r3, r5
    112c:	e1a03143 	asr	r3, r3, #2
    1130:	e1803315 	orr	r3, r0, r5, lsl r3
    1134:	e08e1182 	add	r1, lr, r2, lsl #3
    1138:	e79e0182 	ldr	r0, [lr, r2, lsl #3]
    113c:	e2411008 	sub	r1, r1, #8
    1140:	e58c100c 	str	r1, [ip, #12]
    1144:	e58c0008 	str	r0, [ip, #8]
    1148:	e58e3004 	str	r3, [lr, #4]
    114c:	e78ec182 	str	ip, [lr, r2, lsl #3]
    1150:	e580c00c 	str	ip, [r0, #12]
    1154:	e1a00004 	mov	r0, r4
    1158:	ebffff11 	bl	da4 <__malloc_unlock>
    115c:	e8bd41f0 	pop	{r4, r5, r6, r7, r8, lr}
    1160:	e12fff1e 	bx	lr
    1164:	e5900004 	ldr	r0, [r0, #4]
    1168:	e3100001 	tst	r0, #1
    116c:	1a00000b 	bne	11a0 <_free_r+0x11c>
    1170:	e0833002 	add	r3, r3, r2
    1174:	e28e6008 	add	r6, lr, #8
    1178:	e5912008 	ldr	r2, [r1, #8]
    117c:	e1520006 	cmp	r2, r6
    1180:	e3830001 	orr	r0, r3, #1
    1184:	0a00005c 	beq	12fc <_free_r+0x278>
    1188:	e591100c 	ldr	r1, [r1, #12]
    118c:	e582100c 	str	r1, [r2, #12]
    1190:	e5812008 	str	r2, [r1, #8]
    1194:	e58c0004 	str	r0, [ip, #4]
    1198:	e78c3003 	str	r3, [ip, r3]
    119c:	eaffffdc 	b	1114 <_free_r+0x90>
    11a0:	e3832001 	orr	r2, r3, #1
    11a4:	e3530c02 	cmp	r3, #512	; 0x200
    11a8:	e5052004 	str	r2, [r5, #-4]
    11ac:	e5813000 	str	r3, [r1]
    11b0:	3affffd9 	bcc	111c <_free_r+0x98>
    11b4:	e1a024a3 	lsr	r2, r3, #9
    11b8:	e3520004 	cmp	r2, #4
    11bc:	8a000039 	bhi	12a8 <_free_r+0x224>
    11c0:	e1a02323 	lsr	r2, r3, #6
    11c4:	e2825039 	add	r5, r2, #57	; 0x39
    11c8:	e1a05185 	lsl	r5, r5, #3
    11cc:	e2821038 	add	r1, r2, #56	; 0x38
    11d0:	e08e0005 	add	r0, lr, r5
    11d4:	e79e2005 	ldr	r2, [lr, r5]
    11d8:	e2400008 	sub	r0, r0, #8
    11dc:	e1500002 	cmp	r0, r2
    11e0:	0a00003f 	beq	12e4 <_free_r+0x260>
    11e4:	e5921004 	ldr	r1, [r2, #4]
    11e8:	e3c11003 	bic	r1, r1, #3
    11ec:	e1510003 	cmp	r1, r3
    11f0:	9a000002 	bls	1200 <_free_r+0x17c>
    11f4:	e5922008 	ldr	r2, [r2, #8]
    11f8:	e1500002 	cmp	r0, r2
    11fc:	1afffff8 	bne	11e4 <_free_r+0x160>
    1200:	e592000c 	ldr	r0, [r2, #12]
    1204:	e58c000c 	str	r0, [ip, #12]
    1208:	e58c2008 	str	r2, [ip, #8]
    120c:	e580c008 	str	ip, [r0, #8]
    1210:	e582c00c 	str	ip, [r2, #12]
    1214:	eaffffce 	b	1154 <_free_r+0xd0>
    1218:	e3500000 	cmp	r0, #0
    121c:	13832001 	orrne	r2, r3, #1
    1220:	158c2004 	strne	r2, [ip, #4]
    1224:	15813000 	strne	r3, [r1]
    1228:	1affffc9 	bne	1154 <_free_r+0xd0>
    122c:	e2811008 	add	r1, r1, #8
    1230:	e0823003 	add	r3, r2, r3
    1234:	e8910006 	ldm	r1, {r1, r2}
    1238:	e3830001 	orr	r0, r3, #1
    123c:	e581200c 	str	r2, [r1, #12]
    1240:	e5821008 	str	r1, [r2, #8]
    1244:	e58c0004 	str	r0, [ip, #4]
    1248:	e78c3003 	str	r3, [ip, r3]
    124c:	eaffffc0 	b	1154 <_free_r+0xd0>
    1250:	e3100001 	tst	r0, #1
    1254:	e0833002 	add	r3, r3, r2
    1258:	1a000006 	bne	1278 <_free_r+0x1f4>
    125c:	e5152008 	ldr	r2, [r5, #-8]
    1260:	e04cc002 	sub	ip, ip, r2
    1264:	e28c0008 	add	r0, ip, #8
    1268:	e8900003 	ldm	r0, {r0, r1}
    126c:	e580100c 	str	r1, [r0, #12]
    1270:	e5810008 	str	r0, [r1, #8]
    1274:	e0833002 	add	r3, r3, r2
    1278:	e59f20d8 	ldr	r2, [pc, #216]	; 1358 <_free_r+0x2d4>
    127c:	e5922000 	ldr	r2, [r2]
    1280:	e1520003 	cmp	r2, r3
    1284:	e3833001 	orr	r3, r3, #1
    1288:	e58c3004 	str	r3, [ip, #4]
    128c:	e58ec008 	str	ip, [lr, #8]
    1290:	8affffaf 	bhi	1154 <_free_r+0xd0>
    1294:	e59f30c0 	ldr	r3, [pc, #192]	; 135c <_free_r+0x2d8>
    1298:	e1a00004 	mov	r0, r4
    129c:	e5931000 	ldr	r1, [r3]
    12a0:	ebffff37 	bl	f84 <_malloc_trim_r>
    12a4:	eaffffaa 	b	1154 <_free_r+0xd0>
    12a8:	e3520014 	cmp	r2, #20
    12ac:	9a000008 	bls	12d4 <_free_r+0x250>
    12b0:	e3520054 	cmp	r2, #84	; 0x54
    12b4:	8a000016 	bhi	1314 <_free_r+0x290>
    12b8:	e1a02623 	lsr	r2, r3, #12
    12bc:	e282506f 	add	r5, r2, #111	; 0x6f
    12c0:	e1a05185 	lsl	r5, r5, #3
    12c4:	e282106e 	add	r1, r2, #110	; 0x6e
    12c8:	eaffffc0 	b	11d0 <_free_r+0x14c>
    12cc:	e0833002 	add	r3, r3, r2
    12d0:	eaffffa8 	b	1178 <_free_r+0xf4>
    12d4:	e282505c 	add	r5, r2, #92	; 0x5c
    12d8:	e1a05185 	lsl	r5, r5, #3
    12dc:	e282105b 	add	r1, r2, #91	; 0x5b
    12e0:	eaffffba 	b	11d0 <_free_r+0x14c>
    12e4:	e3a05001 	mov	r5, #1
    12e8:	e59e3004 	ldr	r3, [lr, #4]
    12ec:	e1a01141 	asr	r1, r1, #2
    12f0:	e1831115 	orr	r1, r3, r5, lsl r1
    12f4:	e58e1004 	str	r1, [lr, #4]
    12f8:	eaffffc1 	b	1204 <_free_r+0x180>
    12fc:	e58ec014 	str	ip, [lr, #20]
    1300:	e58ec010 	str	ip, [lr, #16]
    1304:	e58c600c 	str	r6, [ip, #12]
    1308:	e98c0041 	stmib	ip, {r0, r6}
    130c:	e78c3003 	str	r3, [ip, r3]
    1310:	eaffff8f 	b	1154 <_free_r+0xd0>
    1314:	e3520f55 	cmp	r2, #340	; 0x154
    1318:	8a000004 	bhi	1330 <_free_r+0x2ac>
    131c:	e1a027a3 	lsr	r2, r3, #15
    1320:	e2825078 	add	r5, r2, #120	; 0x78
    1324:	e1a05185 	lsl	r5, r5, #3
    1328:	e2821077 	add	r1, r2, #119	; 0x77
    132c:	eaffffa7 	b	11d0 <_free_r+0x14c>
    1330:	e59f1028 	ldr	r1, [pc, #40]	; 1360 <_free_r+0x2dc>
    1334:	e1520001 	cmp	r2, r1
    1338:	91a02923 	lsrls	r2, r3, #18
    133c:	9282507d 	addls	r5, r2, #125	; 0x7d
    1340:	91a05185 	lslls	r5, r5, #3
    1344:	9282107c 	addls	r1, r2, #124	; 0x7c
    1348:	83a05ffe 	movhi	r5, #1016	; 0x3f8
    134c:	83a0107e 	movhi	r1, #126	; 0x7e
    1350:	eaffff9e 	b	11d0 <_free_r+0x14c>
    1354:	20000460 	.word	0x20000460
    1358:	2000086c 	.word	0x2000086c
    135c:	20000898 	.word	0x20000898
    1360:	00000554 	.word	0x00000554

00001364 <cleanup_glue>:
    1364:	e92d4070 	push	{r4, r5, r6, lr}
    1368:	e1a04001 	mov	r4, r1
    136c:	e5911000 	ldr	r1, [r1]
    1370:	e3510000 	cmp	r1, #0
    1374:	e1a05000 	mov	r5, r0
    1378:	1bfffff9 	blne	1364 <cleanup_glue>
    137c:	e1a01004 	mov	r1, r4
    1380:	e1a00005 	mov	r0, r5
    1384:	ebffff3e 	bl	1084 <_free_r>
    1388:	e8bd4070 	pop	{r4, r5, r6, lr}
    138c:	e12fff1e 	bx	lr

00001390 <_reclaim_reent>:
    1390:	e59f30e4 	ldr	r3, [pc, #228]	; 147c <_reclaim_reent+0xec>
    1394:	e5933000 	ldr	r3, [r3]
    1398:	e1530000 	cmp	r3, r0
    139c:	012fff1e 	bxeq	lr
    13a0:	e590304c 	ldr	r3, [r0, #76]	; 0x4c
    13a4:	e3530000 	cmp	r3, #0
    13a8:	e92d4070 	push	{r4, r5, r6, lr}
    13ac:	e1a05000 	mov	r5, r0
    13b0:	0a00000f 	beq	13f4 <_reclaim_reent+0x64>
    13b4:	e3a06000 	mov	r6, #0
    13b8:	e7931006 	ldr	r1, [r3, r6]
    13bc:	e3510000 	cmp	r1, #0
    13c0:	0a000005 	beq	13dc <_reclaim_reent+0x4c>
    13c4:	e5914000 	ldr	r4, [r1]
    13c8:	e1a00005 	mov	r0, r5
    13cc:	ebffff2c 	bl	1084 <_free_r>
    13d0:	e2541000 	subs	r1, r4, #0
    13d4:	1afffffa 	bne	13c4 <_reclaim_reent+0x34>
    13d8:	e595304c 	ldr	r3, [r5, #76]	; 0x4c
    13dc:	e2866004 	add	r6, r6, #4
    13e0:	e3560080 	cmp	r6, #128	; 0x80
    13e4:	1afffff3 	bne	13b8 <_reclaim_reent+0x28>
    13e8:	e1a01003 	mov	r1, r3
    13ec:	e1a00005 	mov	r0, r5
    13f0:	ebffff23 	bl	1084 <_free_r>
    13f4:	e5951040 	ldr	r1, [r5, #64]	; 0x40
    13f8:	e3510000 	cmp	r1, #0
    13fc:	11a00005 	movne	r0, r5
    1400:	1bffff1f 	blne	1084 <_free_r>
    1404:	e5951148 	ldr	r1, [r5, #328]	; 0x148
    1408:	e3510000 	cmp	r1, #0
    140c:	0a000008 	beq	1434 <_reclaim_reent+0xa4>
    1410:	e2856f53 	add	r6, r5, #332	; 0x14c
    1414:	e1510006 	cmp	r1, r6
    1418:	0a000005 	beq	1434 <_reclaim_reent+0xa4>
    141c:	e5914000 	ldr	r4, [r1]
    1420:	e1a00005 	mov	r0, r5
    1424:	ebffff16 	bl	1084 <_free_r>
    1428:	e1560004 	cmp	r6, r4
    142c:	e1a01004 	mov	r1, r4
    1430:	1afffff9 	bne	141c <_reclaim_reent+0x8c>
    1434:	e5951054 	ldr	r1, [r5, #84]	; 0x54
    1438:	e3510000 	cmp	r1, #0
    143c:	11a00005 	movne	r0, r5
    1440:	1bffff0f 	blne	1084 <_free_r>
    1444:	e5953038 	ldr	r3, [r5, #56]	; 0x38
    1448:	e3530000 	cmp	r3, #0
    144c:	0a000008 	beq	1474 <_reclaim_reent+0xe4>
    1450:	e595303c 	ldr	r3, [r5, #60]	; 0x3c
    1454:	e1a00005 	mov	r0, r5
    1458:	e1a0e00f 	mov	lr, pc
    145c:	e12fff13 	bx	r3
    1460:	e59512e0 	ldr	r1, [r5, #736]	; 0x2e0
    1464:	e3510000 	cmp	r1, #0
    1468:	11a00005 	movne	r0, r5
    146c:	18bd4070 	popne	{r4, r5, r6, lr}
    1470:	1affffbb 	bne	1364 <cleanup_glue>
    1474:	e8bd4070 	pop	{r4, r5, r6, lr}
    1478:	e12fff1e 	bx	lr
    147c:	20000030 	.word	0x20000030

00001480 <_sbrk>:
    1480:	e59f201c 	ldr	r2, [pc, #28]	; 14a4 <_sbrk+0x24>
    1484:	e5923000 	ldr	r3, [r2]
    1488:	e59f1018 	ldr	r1, [pc, #24]	; 14a8 <_sbrk+0x28>
    148c:	e3530000 	cmp	r3, #0
    1490:	01a03001 	moveq	r3, r1
    1494:	e0830000 	add	r0, r3, r0
    1498:	e5820000 	str	r0, [r2]
    149c:	e1a00003 	mov	r0, r3
    14a0:	e12fff1e 	bx	lr
    14a4:	200008cc 	.word	0x200008cc
    14a8:	200008d4 	.word	0x200008d4

000014ac <_exit>:
    14ac:	eafffffe 	b	14ac <_exit>

000014b0 <register_fini>:
    14b0:	e59f3018 	ldr	r3, [pc, #24]	; 14d0 <register_fini+0x20>
    14b4:	e3530000 	cmp	r3, #0
    14b8:	012fff1e 	bxeq	lr
    14bc:	e92d4010 	push	{r4, lr}
    14c0:	e59f000c 	ldr	r0, [pc, #12]	; 14d4 <register_fini+0x24>
    14c4:	ebfffba9 	bl	370 <atexit>
    14c8:	e8bd4010 	pop	{r4, lr}
    14cc:	e12fff1e 	bx	lr
    14d0:	00000000 	.word	0x00000000
    14d4:	000003c4 	.word	0x000003c4

000014d8 <__frame_dummy_init_array_entry>:
    14d8:	000000a8 000014b0                       ........

000014e0 <_init>:
    14e0:	e1a0c00d 	mov	ip, sp
    14e4:	e92ddff8 	push	{r3, r4, r5, r6, r7, r8, r9, sl, fp, ip, lr, pc}
    14e8:	e24cb004 	sub	fp, ip, #4
    14ec:	e24bd028 	sub	sp, fp, #40	; 0x28
    14f0:	e89d6ff0 	ldm	sp, {r4, r5, r6, r7, r8, r9, sl, fp, sp, lr}
    14f4:	e12fff1e 	bx	lr

000014f8 <_fini>:
    14f8:	e1a0c00d 	mov	ip, sp
    14fc:	e92ddff8 	push	{r3, r4, r5, r6, r7, r8, r9, sl, fp, ip, lr, pc}
    1500:	e24cb004 	sub	fp, ip, #4

00001504 <__do_global_dtors_aux_fini_array_entry>:
    1504:	00000064 e24bd028 e89d6ff0 e12fff1e     d...(.K..o..../.
